(dp1
S'80001'
p2
(lp3
S'panpan'
p4
aI23
aI10000
asS'8000'
p5
(lp6
S'zhaoyihong'
p7
aI25
aF9999.8999999999996
as.(dp1
S'80001'
p2
(lp3
S'panpan'
p4
aI23
aI10000
asS'9000'
p5
(lp6
S'zhaoyihong'
p7
aI25
aF9999.8999999999996
as.(dp1
S'80001'
p2
(lp3
S'panpan'
p4
aI23
aI10000
asS'10000'
p5
(lp6
S'zhaoyihong'
p7
aI25
aF9999.8999999999996
as.